target datalayout = "e-m:e-p270:32:32-p271:32:32-p272:64:64-i64:64-i128:128-f80:128-n8:16:32:64-S128"
target triple = "x86_64-pc-linux-gnu"

%struct._object = type { %union.anon, ptr }
%union.anon = type { i64 }
%struct.PyVarObject = type { %struct._object, i64 }
%struct.unionobject = type { %struct._object, ptr, ptr }
%struct.PyTupleObject = type { %struct.PyVarObject, [1 x ptr] }

@.str.2 = private unnamed_addr constant [4 x i8] c" | \00", align 1

; Function Attrs: inlinehint nounwind uwtable
define internal i64 @Py_SIZE(ptr noundef %0) #3 {
  %2 = alloca ptr, align 8
  store ptr %0, ptr %2, align 8, !tbaa !4
  %3 = load ptr, ptr %2, align 8, !tbaa !4
  %4 = getelementptr inbounds nuw %struct.PyVarObject, ptr %3, i32 0, i32 1
  %5 = load i64, ptr %4, align 8, !tbaa !44
  ret i64 %5
}

; Function Attrs: inlinehint nounwind uwtable
define internal i64 @PyTuple_GET_SIZE(ptr noundef %0) #3 {
  %2 = alloca ptr, align 8
  %3 = alloca ptr, align 8
  store ptr %0, ptr %2, align 8, !tbaa !4
  call void @llvm.lifetime.start.p0(i64 8, ptr %3) #6
  %4 = load ptr, ptr %2, align 8, !tbaa !4
  store ptr %4, ptr %3, align 8, !tbaa !24
  %5 = load ptr, ptr %3, align 8, !tbaa !24
  %6 = call i64 @Py_SIZE(ptr noundef %5)
  call void @llvm.lifetime.end.p0(i64 8, ptr %3) #6
  ret i64 %6
}

; Function Attrs: nounwind uwtable
define internal ptr @union_repr(ptr noundef %0) #0 {
  %2 = alloca ptr, align 8
  %3 = alloca ptr, align 8
  %4 = alloca ptr, align 8
  %5 = alloca i64, align 8
  %6 = alloca i64, align 8
  %7 = alloca ptr, align 8
  %8 = alloca i32, align 4
  %9 = alloca i64, align 8
  %10 = alloca ptr, align 8
  store ptr %0, ptr %3, align 8, !tbaa !4
  call void @llvm.lifetime.start.p0(i64 8, ptr %4) #6
  %11 = load ptr, ptr %3, align 8, !tbaa !4
  store ptr %11, ptr %4, align 8, !tbaa !24
  call void @llvm.lifetime.start.p0(i64 8, ptr %5) #6
  %12 = load ptr, ptr %4, align 8, !tbaa !24
  %13 = getelementptr inbounds nuw %struct.unionobject, ptr %12, i32 0, i32 1
  %14 = load ptr, ptr %13, align 8, !tbaa !15
  %15 = call i64 @PyTuple_GET_SIZE(ptr noundef %14)
  store i64 %15, ptr %5, align 8, !tbaa !11
  call void @llvm.lifetime.start.p0(i64 8, ptr %6) #6
  %16 = load i64, ptr %5, align 8, !tbaa !11
  %17 = icmp sle i64 %16, 1537228672809129301
  br i1 %17, label %18, label %21

18:                                               ; preds = %1
  %19 = load i64, ptr %5, align 8, !tbaa !11
  %20 = mul i64 %19, 6
  br label %23

21:                                               ; preds = %1
  %22 = load i64, ptr %5, align 8, !tbaa !11
  br label %23

23:                                               ; preds = %21, %18
  %24 = phi i64 [ %20, %18 ], [ %22, %21 ]
  store i64 %24, ptr %6, align 8, !tbaa !11
  call void @llvm.lifetime.start.p0(i64 8, ptr %7) #6
  %25 = load i64, ptr %6, align 8, !tbaa !11
  %26 = call ptr @PyUnicodeWriter_Create(i64 noundef %25)
  store ptr %26, ptr %7, align 8, !tbaa !35
  %27 = load ptr, ptr %7, align 8, !tbaa !35
  %28 = icmp eq ptr %27, null
  br i1 %28, label %29, label %30

29:                                               ; preds = %23
  store ptr null, ptr %2, align 8
  store i32 1, ptr %8, align 4
  br label %71

30:                                               ; preds = %23
  call void @llvm.lifetime.start.p0(i64 8, ptr %9) #6
  store i64 0, ptr %9, align 8, !tbaa !11
  br label %31

31:                                               ; preds = %61, %30
  %32 = load i64, ptr %9, align 8, !tbaa !11
  %33 = load i64, ptr %5, align 8, !tbaa !11
  %34 = icmp slt i64 %32, %33
  br i1 %34, label %36, label %35

35:                                               ; preds = %31
  store i32 2, ptr %8, align 4
  br label %64

36:                                               ; preds = %31
  %37 = load i64, ptr %9, align 8, !tbaa !11
  %38 = icmp sgt i64 %37, 0
  br i1 %38, label %39, label %44

39:                                               ; preds = %36
  %40 = load ptr, ptr %7, align 8, !tbaa !35
  %41 = call i32 @PyUnicodeWriter_WriteUTF8(ptr noundef %40, ptr noundef @.str.2, i64 noundef 3)
  %42 = icmp slt i32 %41, 0
  br i1 %42, label %43, label %44

43:                                               ; preds = %39
  store i32 5, ptr %8, align 4
  br label %64

44:                                               ; preds = %39, %36
  call void @llvm.lifetime.start.p0(i64 8, ptr %10) #6
  %45 = load ptr, ptr %4, align 8, !tbaa !24
  %46 = getelementptr inbounds nuw %struct.unionobject, ptr %45, i32 0, i32 1
  %47 = load ptr, ptr %46, align 8, !tbaa !15
  %48 = getelementptr inbounds nuw %struct.PyTupleObject, ptr %47, i32 0, i32 1
  %49 = load i64, ptr %9, align 8, !tbaa !11
  %50 = getelementptr [1 x ptr], ptr %48, i64 0, i64 %49
  %51 = load ptr, ptr %50, align 8, !tbaa !4
  store ptr %51, ptr %10, align 8, !tbaa !4
  %52 = load ptr, ptr %7, align 8, !tbaa !35
  %53 = load ptr, ptr %10, align 8, !tbaa !4
  %54 = call i32 @_Py_typing_type_repr(ptr noundef %52, ptr noundef %53)
  %55 = icmp slt i32 %54, 0
  br i1 %55, label %56, label %57

56:                                               ; preds = %44
  store i32 5, ptr %8, align 4
  br label %58

57:                                               ; preds = %44
  store i32 0, ptr %8, align 4
  br label %58

58:                                               ; preds = %56, %57
  call void @llvm.lifetime.end.p0(i64 8, ptr %10) #6
  %59 = load i32, ptr %8, align 4
  switch i32 %59, label %64 [
    i32 0, label %60
  ]

60:                                               ; preds = %58
  br label %61

61:                                               ; preds = %60
  %62 = load i64, ptr %9, align 8, !tbaa !11
  %63 = add i64 %62, 1
  store i64 %63, ptr %9, align 8, !tbaa !11
  br label %31, !llvm.loop !37

64:                                               ; preds = %43, %58, %35
  call void @llvm.lifetime.end.p0(i64 8, ptr %9) #6
  %65 = load i32, ptr %8, align 4
  switch i32 %65, label %71 [
    i32 2, label %66
    i32 5, label %69
  ]

66:                                               ; preds = %64
  %67 = load ptr, ptr %7, align 8, !tbaa !35
  %68 = call ptr @PyUnicodeWriter_Finish(ptr noundef %67)
  store ptr %68, ptr %2, align 8
  store i32 1, ptr %8, align 4
  br label %71

69:                                               ; preds = %64
  %70 = load ptr, ptr %7, align 8, !tbaa !35
  call void @PyUnicodeWriter_Discard(ptr noundef %70)
  store ptr null, ptr %2, align 8
  store i32 1, ptr %8, align 4
  br label %71

71:                                               ; preds = %69, %66, %64, %29
  call void @llvm.lifetime.end.p0(i64 8, ptr %7) #6
  call void @llvm.lifetime.end.p0(i64 8, ptr %6) #6
  call void @llvm.lifetime.end.p0(i64 8, ptr %5) #6
  call void @llvm.lifetime.end.p0(i64 8, ptr %4) #6
  %72 = load ptr, ptr %2, align 8
  ret ptr %72
}