; Function Attrs: nounwind uwtable
define internal ptr @union_repr(ptr noundef readonly captures(none) %0) #0 {
  %2 = getelementptr inbounds nuw i8, ptr %0, i64 16
  %3 = load ptr, ptr %2, align 8, !tbaa !22
  %4 = getelementptr i8, ptr %3, i64 16
  %.val = load i64, ptr %4, align 8, !tbaa !24
  %5 = icmp slt i64 %.val, 1537228672809129302
  %6 = mul i64 %.val, 6
  %7 = select i1 %5, i64 %6, i64 %.val
  %8 = tail call ptr @PyUnicodeWriter_Create(i64 noundef %7) #5
  %9 = icmp eq ptr %8, null
  br i1 %9, label %24, label %.preheader

.preheader:                                       ; preds = %1
  %10 = icmp sgt i64 %.val, 0
  br i1 %10, label %.lr.ph, label %.thread

11:                                               ; preds = %16
  %12 = add nuw nsw i64 %.02026, 1
  %exitcond.not = icmp eq i64 %12, %.val
  br i1 %exitcond.not, label %.thread, label %.lr.ph, !llvm.loop !114

.lr.ph:                                           ; preds = %.preheader, %11
  %.02026 = phi i64 [ %12, %11 ], [ 0, %.preheader ]
  %.not = icmp eq i64 %.02026, 0
  br i1 %.not, label %16, label %13

13:                                               ; preds = %.lr.ph
  %14 = tail call i32 @PyUnicodeWriter_WriteUTF8(ptr noundef nonnull %8, ptr noundef nonnull @.str.2, i64 noundef 3) #5
  %15 = icmp slt i32 %14, 0
  br i1 %15, label %.thread24, label %16

16:                                               ; preds = %13, %.lr.ph
  %17 = load ptr, ptr %2, align 8, !tbaa !22
  %18 = getelementptr inbounds nuw i8, ptr %17, i64 24
  %19 = getelementptr [1 x ptr], ptr %18, i64 0, i64 %.02026
  %20 = load ptr, ptr %19, align 8, !tbaa !4
  %21 = tail call i32 @_Py_typing_type_repr(ptr noundef nonnull %8, ptr noundef %20) #5
  %22 = icmp sgt i32 %21, -1
  br i1 %22, label %11, label %.thread24

.thread:                                          ; preds = %11, %.preheader
  %23 = tail call ptr @PyUnicodeWriter_Finish(ptr noundef nonnull %8) #5
  br label %24

.thread24:                                        ; preds = %16, %13
  tail call void @PyUnicodeWriter_Discard(ptr noundef nonnull %8) #5
  br label %24

24:                                               ; preds = %1, %.thread24, %.thread
  %.0 = phi ptr [ null, %.thread24 ], [ %23, %.thread ], [ null, %1 ]
  ret ptr %.0
}